target datalayout = "e-m:e-p270:32:32-p271:32:32-p272:64:64-i64:64-i128:128-f80:128-n8:16:32:64-S128"
target triple = "x86_64-pc-linux-gnu"

%struct.MP = type { i64, [100 x ptr], %union.anon }
%union.anon = type { %struct.MPMAP }
%struct.MPMAP = type { ptr, i64, i64 }
%struct.FRAG = type { %union.anon.0 }
%union.anon.0 = type { %struct.unaligned_ptr }
%struct.unaligned_ptr = type { ptr }
%struct.alloced = type { i8, i8, i8 }

@.str.10 = private unnamed_addr constant [10 x i8] c"free @%p\0A\00", align 1
@.str.23 = private unnamed_addr constant [59 x i8] c"cli_mpool_hex2ui(): Malformed hexstring: %s (length: %lu)\0A\00", align 1

; Function Attrs: nounwind uwtable
define internal ptr @allocbase_fromfrag(ptr noundef %0) #0 {
  %2 = alloca ptr, align 8
  store ptr %0, ptr %2, align 8
  %3 = load ptr, ptr %2, align 8
  %4 = load ptr, ptr %2, align 8
  %5 = getelementptr inbounds %struct.FRAG, ptr %4, i32 0, i32 0
  %6 = getelementptr inbounds %struct.alloced, ptr %5, i32 0, i32 0
  %7 = load i8, ptr %6, align 1
  %8 = zext i8 %7 to i32
  %9 = sext i32 %8 to i64
  %10 = sub i64 0, %9
  %11 = getelementptr inbounds i8, ptr %3, i64 %10
  ret ptr %11
}

; Function Attrs: nounwind uwtable
define internal void @spam(ptr noundef %0, ...) #0 {
  %2 = alloca ptr, align 8
  store ptr %0, ptr %2, align 8
  ret void
}

; Function Attrs: nounwind uwtable
define void @mpool_free(ptr noundef %0, ptr noundef %1) #0 {
  %3 = alloca ptr, align 8
  %4 = alloca ptr, align 8
  %5 = alloca ptr, align 8
  %6 = alloca i32, align 4
  store ptr %0, ptr %3, align 8
  store ptr %1, ptr %4, align 8
  store ptr null, ptr %5, align 8
  store i32 0, ptr %6, align 4
  %7 = load ptr, ptr %4, align 8
  %8 = icmp ne ptr %7, null
  br i1 %8, label %10, label %9

9:                                                ; preds = %2
  br label %36

10:                                               ; preds = %2
  %11 = load ptr, ptr %4, align 8
  %12 = getelementptr inbounds i8, ptr %11, i64 -2
  store ptr %12, ptr %5, align 8
  %13 = load ptr, ptr %5, align 8
  call void (ptr, ...) @spam(ptr noundef @.str.10, ptr noundef %13)
  %14 = load ptr, ptr %5, align 8
  %15 = getelementptr inbounds %struct.FRAG, ptr %14, i32 0, i32 0
  %16 = getelementptr inbounds %struct.alloced, ptr %15, i32 0, i32 1
  %17 = load i8, ptr %16, align 1
  %18 = zext i8 %17 to i32
  store i32 %18, ptr %6, align 4
  %19 = load ptr, ptr %5, align 8
  %20 = call ptr @allocbase_fromfrag(ptr noundef %19)
  store ptr %20, ptr %5, align 8
  %21 = load ptr, ptr %3, align 8
  %22 = getelementptr inbounds %struct.MP, ptr %21, i32 0, i32 1
  %23 = load i32, ptr %6, align 4
  %24 = zext i32 %23 to i64
  %25 = getelementptr inbounds [100 x ptr], ptr %22, i64 0, i64 %24
  %26 = load ptr, ptr %25, align 8
  %27 = load ptr, ptr %5, align 8
  %28 = getelementptr inbounds %struct.FRAG, ptr %27, i32 0, i32 0
  %29 = getelementptr inbounds %struct.unaligned_ptr, ptr %28, i32 0, i32 0
  store ptr %26, ptr %29, align 1
  %30 = load ptr, ptr %5, align 8
  %31 = load ptr, ptr %3, align 8
  %32 = getelementptr inbounds %struct.MP, ptr %31, i32 0, i32 1
  %33 = load i32, ptr %6, align 4
  %34 = zext i32 %33 to i64
  %35 = getelementptr inbounds [100 x ptr], ptr %32, i64 0, i64 %34
  store ptr %30, ptr %35, align 8
  br label %36

36:                                               ; preds = %10, %9
  ret void
}

; Function Attrs: nounwind uwtable
define ptr @mpool_calloc(ptr noundef %0, i64 noundef %1, i64 noundef %2) #0 {
  %4 = alloca ptr, align 8
  %5 = alloca ptr, align 8
  %6 = alloca i64, align 8
  %7 = alloca i64, align 8
  %8 = alloca i64, align 8
  %9 = alloca ptr, align 8
  store ptr %0, ptr %5, align 8
  store i64 %1, ptr %6, align 8
  store i64 %2, ptr %7, align 8
  %10 = load i64, ptr %6, align 8
  %11 = load i64, ptr %7, align 8
  %12 = mul i64 %10, %11
  store i64 %12, ptr %8, align 8
  %13 = load i64, ptr %8, align 8
  %14 = icmp ne i64 %13, 0
  br i1 %14, label %16, label %15

15:                                               ; preds = %3
  store ptr null, ptr %4, align 8
  br label %26

16:                                               ; preds = %3
  %17 = load ptr, ptr %5, align 8
  %18 = load i64, ptr %8, align 8
  %19 = call ptr @mpool_malloc(ptr noundef %17, i64 noundef %18)
  store ptr %19, ptr %9, align 8
  %20 = icmp ne ptr %19, null
  br i1 %20, label %21, label %24

21:                                               ; preds = %16
  %22 = load ptr, ptr %9, align 8
  %23 = load i64, ptr %8, align 8
  call void @llvm.memset.p0.i64(ptr align 1 %22, i8 0, i64 %23, i1 false)
  br label %24

24:                                               ; preds = %21, %16
  %25 = load ptr, ptr %9, align 8
  store ptr %25, ptr %4, align 8
  br label %26

26:                                               ; preds = %24, %15
  %27 = load ptr, ptr %4, align 8
  ret ptr %27
}

; Function Attrs: nounwind uwtable
define ptr @cli_mpool_hex2ui(ptr noundef %0, ptr noundef %1) #0 {
  %3 = alloca ptr, align 8
  %4 = alloca ptr, align 8
  %5 = alloca ptr, align 8
  %6 = alloca ptr, align 8
  %7 = alloca i64, align 8
  store ptr %0, ptr %4, align 8
  store ptr %1, ptr %5, align 8
  %8 = load ptr, ptr %5, align 8
  %9 = call i64 @strlen(ptr noundef %8) #7
  store i64 %9, ptr %7, align 8
  %10 = load i64, ptr %7, align 8
  %11 = urem i64 %10, 2
  %12 = icmp ne i64 %11, 0
  br i1 %12, label %13, label %16

13:                                               ; preds = %2
  %14 = load ptr, ptr %5, align 8
  %15 = load i64, ptr %7, align 8
  call void (ptr, ...) @cli_errmsg(ptr noundef @.str.23, ptr noundef %14, i64 noundef %15)
  store ptr null, ptr %3, align 8
  br label %37

16:                                               ; preds = %2
  %17 = load ptr, ptr %4, align 8
  %18 = load i64, ptr %7, align 8
  %19 = udiv i64 %18, 2
  %20 = add i64 %19, 1
  %21 = call ptr @mpool_calloc(ptr noundef %17, i64 noundef %20, i64 noundef 2)
  store ptr %21, ptr %6, align 8
  %22 = load ptr, ptr %6, align 8
  %23 = icmp ne ptr %22, null
  br i1 %23, label %25, label %24

24:                                               ; preds = %16
  store ptr null, ptr %3, align 8
  br label %37

25:                                               ; preds = %16
  %26 = load ptr, ptr %5, align 8
  %27 = load ptr, ptr %6, align 8
  %28 = load i64, ptr %7, align 8
  %29 = trunc i64 %28 to i32
  %30 = call i32 @cli_realhex2ui(ptr noundef %26, ptr noundef %27, i32 noundef %29)
  %31 = icmp ne i32 %30, 0
  br i1 %31, label %32, label %34

32:                                               ; preds = %25
  %33 = load ptr, ptr %6, align 8
  store ptr %33, ptr %3, align 8
  br label %37

34:                                               ; preds = %25
  %35 = load ptr, ptr %4, align 8
  %36 = load ptr, ptr %6, align 8
  call void @mpool_free(ptr noundef %35, ptr noundef %36)
  store ptr null, ptr %3, align 8
  br label %37

37:                                               ; preds = %34, %32, %24, %13
  %38 = load ptr, ptr %3, align 8
  ret ptr %38
}