; Function Attrs: nounwind uwtable
define ptr @cli_mpool_hex2ui(ptr noundef %0, ptr noundef %1) local_unnamed_addr #0 {
  %3 = tail call i64 @strlen(ptr noundef nonnull dereferenceable(1) %1) #11
  %4 = and i64 %3, 1
  %.not = icmp eq i64 %4, 0
  br i1 %.not, label %6, label %5

5:                                                ; preds = %2
  tail call void (ptr, ...) @cli_errmsg(ptr noundef nonnull @.str.23, ptr noundef %1, i64 noundef %3) #10
  br label %mpool_calloc.exit.thread

6:                                                ; preds = %2
  %7 = add i64 %3, 2
  %.not.i = icmp eq i64 %7, 0
  br i1 %.not.i, label %mpool_calloc.exit.thread, label %8

8:                                                ; preds = %6
  %9 = tail call ptr @mpool_malloc(ptr noundef %0, i64 noundef %7)
  %.not10.i = icmp eq ptr %9, null
  br i1 %.not10.i, label %mpool_calloc.exit.thread, label %10

10:                                               ; preds = %8
  tail call void @llvm.memset.p0.i64(ptr nonnull align 1 %9, i8 0, i64 %7, i1 false)
  %11 = trunc i64 %3 to i32
  %12 = tail call i32 @cli_realhex2ui(ptr noundef %1, ptr noundef nonnull %9, i32 noundef %11) #10
  %.not15 = icmp eq i32 %12, 0
  br i1 %.not15, label %mpool_free.exit, label %mpool_calloc.exit.thread

mpool_free.exit:                                  ; preds = %10
  %13 = getelementptr inbounds i8, ptr %9, i64 -2
  %14 = getelementptr inbounds i8, ptr %9, i64 -1
  %15 = load i8, ptr %14, align 1
  %16 = load i8, ptr %13, align 1
  %17 = zext i8 %16 to i64
  %18 = sub nsw i64 0, %17
  %19 = getelementptr inbounds i8, ptr %13, i64 %18
  %20 = getelementptr inbounds i8, ptr %0, i64 8
  %21 = zext i8 %15 to i64
  %22 = getelementptr inbounds [100 x ptr], ptr %20, i64 0, i64 %21
  %23 = load ptr, ptr %22, align 8
  store ptr %23, ptr %19, align 1
  store ptr %19, ptr %22, align 8
  br label %mpool_calloc.exit.thread

mpool_calloc.exit.thread:                         ; preds = %8, %6, %10, %mpool_free.exit, %5
  %.0 = phi ptr [ null, %5 ], [ null, %mpool_free.exit ], [ %9, %10 ], [ null, %6 ], [ null, %8 ]
  ret ptr %.0
}